target datalayout = "e-m:e-p270:32:32-p271:32:32-p272:64:64-i64:64-i128:128-f80:128-n8:16:32:64-S128"
target triple = "x86_64-pc-linux-gnu"

%struct.FWCfgState = type { %struct.SysBusDevice, i16, [2 x ptr], ptr, ptr, i16, i32, %struct.Notifier, i32, i8, i64, ptr, %struct.MemoryRegion, i8, i64, i64, i64 }
%struct.SysBusDevice = type { %struct.DeviceState, i32, [32 x %struct.anon], i32, [32 x i32] }
%struct.DeviceState = type { %struct.Object, ptr, ptr, i8, i8, i64, i32, i8, ptr, %struct.NamedGPIOListHead, %struct.NamedClockListHead, %struct.BusStateHead, i32, i32, i32, %struct.ResettableState, ptr, %struct.MemReentrancyGuard }
%struct.Object = type { ptr, ptr, ptr, i32, ptr }
%struct.NamedGPIOListHead = type { ptr }
%struct.NamedClockListHead = type { ptr }
%struct.BusStateHead = type { ptr }
%struct.ResettableState = type { i32, i8, i8 }
%struct.MemReentrancyGuard = type { i8 }
%struct.anon = type { i64, ptr }
%struct.Notifier = type { ptr, %struct.anon.0 }
%struct.anon.0 = type { ptr, ptr }
%struct.MemoryRegion = type { %struct.Object, i8, i8, i8, i8, i8, i8, i8, i8, i8, i8, ptr, ptr, ptr, ptr, ptr, ptr, i32, i128, i64, ptr, i64, i8, i8, i8, i8, ptr, i64, i32, %union.anon, %union.anon.1, %union.anon.2, ptr, i32, ptr, ptr, i8 }
%union.anon = type { %struct.QTailQLink }
%struct.QTailQLink = type { ptr, ptr }
%union.anon.1 = type { %struct.QTailQLink }
%union.anon.2 = type { %struct.QTailQLink }

@error_fatal = external global ptr, align 8
@.str.11 = private unnamed_addr constant [12 x i8] c"dma_enabled\00", align 1
@.str.12 = private unnamed_addr constant [7 x i8] c"fw_cfg\00", align 1
@.str.13 = private unnamed_addr constant [11 x i8] c"fw_cfg_mem\00", align 1
@.str.14 = private unnamed_addr constant [11 x i8] c"data_width\00", align 1
@.str.80 = private unnamed_addr constant [104 x i8] c"/home/dtcxzyw/WorkSpace/Projects/compilers/llvm-opt-benchmark/bench/qemu/qemu/include/hw/nvram/fw_cfg.h\00", align 1
@.str.81 = private unnamed_addr constant [15 x i8] c"sys-bus-device\00", align 1
@.str.82 = private unnamed_addr constant [98 x i8] c"/home/dtcxzyw/WorkSpace/Projects/compilers/llvm-opt-benchmark/bench/qemu/qemu/include/hw/sysbus.h\00", align 1
@__func__.SYS_BUS_DEVICE = private unnamed_addr constant [15 x i8] c"SYS_BUS_DEVICE\00", align 1
@__func__.FW_CFG = private unnamed_addr constant [7 x i8] c"FW_CFG\00", align 1

; Function Attrs: inlinehint nounwind sspstrong uwtable
define internal ptr @FW_CFG(ptr noundef %0) #2 {
  %2 = alloca ptr, align 8
  store ptr %0, ptr %2, align 8
  %3 = load ptr, ptr %2, align 8
  %4 = call ptr @object_dynamic_cast_assert(ptr noundef %3, ptr noundef @.str.12, ptr noundef @.str.80, i32 noundef 15, ptr noundef @__func__.FW_CFG)
  ret ptr %4
}

; Function Attrs: inlinehint nounwind sspstrong uwtable
define internal ptr @SYS_BUS_DEVICE(ptr noundef %0) #2 {
  %2 = alloca ptr, align 8
  store ptr %0, ptr %2, align 8
  %3 = load ptr, ptr %2, align 8
  %4 = call ptr @object_dynamic_cast_assert(ptr noundef %3, ptr noundef @.str.81, ptr noundef @.str.82, i32 noundef 20, ptr noundef @__func__.SYS_BUS_DEVICE)
  ret ptr %4
}

; Function Attrs: nounwind sspstrong uwtable
define dso_local ptr @fw_cfg_init_mem_wide(i64 noundef %0, i64 noundef %1, i32 noundef %2, i64 noundef %3, ptr noundef %4) #0 {
  %6 = alloca i64, align 8
  %7 = alloca i64, align 8
  %8 = alloca i32, align 4
  %9 = alloca i64, align 8
  %10 = alloca ptr, align 8
  %11 = alloca ptr, align 8
  %12 = alloca ptr, align 8
  %13 = alloca ptr, align 8
  %14 = alloca i8, align 1
  store i64 %0, ptr %6, align 8
  store i64 %1, ptr %7, align 8
  store i32 %2, ptr %8, align 4
  store i64 %3, ptr %9, align 8
  store ptr %4, ptr %10, align 8
  call void @llvm.lifetime.start.p0(i64 8, ptr %11) #18
  store ptr null, ptr %11, align 8, !annotation !6
  call void @llvm.lifetime.start.p0(i64 8, ptr %12) #18
  store ptr null, ptr %12, align 8, !annotation !6
  call void @llvm.lifetime.start.p0(i64 8, ptr %13) #18
  store ptr null, ptr %13, align 8, !annotation !6
  call void @llvm.lifetime.start.p0(i64 1, ptr %14) #18
  %15 = load i64, ptr %9, align 8
  %16 = icmp ne i64 %15, 0
  br i1 %16, label %17, label %20

17:                                               ; preds = %5
  %18 = load ptr, ptr %10, align 8
  %19 = icmp ne ptr %18, null
  br label %20

20:                                               ; preds = %17, %5
  %21 = phi i1 [ false, %5 ], [ %19, %17 ]
  %22 = zext i1 %21 to i8
  store i8 %22, ptr %14, align 1
  %23 = call ptr @qdev_new(ptr noundef @.str.13)
  store ptr %23, ptr %11, align 8
  %24 = load ptr, ptr %11, align 8
  %25 = load i32, ptr %8, align 4
  call void @qdev_prop_set_uint32(ptr noundef %24, ptr noundef @.str.14, i32 noundef %25)
  %26 = load i8, ptr %14, align 1, !range !4, !noundef !5
  %27 = trunc i8 %26 to i1
  br i1 %27, label %30, label %28

28:                                               ; preds = %20
  %29 = load ptr, ptr %11, align 8
  call void @qdev_prop_set_bit(ptr noundef %29, ptr noundef @.str.11, i1 noundef zeroext false)
  br label %30

30:                                               ; preds = %28, %20
  %31 = call ptr @qdev_get_machine()
  %32 = load ptr, ptr %11, align 8
  %33 = call ptr @object_property_add_child(ptr noundef %31, ptr noundef @.str.12, ptr noundef %32)
  %34 = load ptr, ptr %11, align 8
  %35 = call ptr @SYS_BUS_DEVICE(ptr noundef %34)
  store ptr %35, ptr %12, align 8
  %36 = load ptr, ptr %12, align 8
  %37 = call zeroext i1 @sysbus_realize_and_unref(ptr noundef %36, ptr noundef @error_fatal)
  %38 = load ptr, ptr %12, align 8
  %39 = load i64, ptr %6, align 8
  call void @sysbus_mmio_map(ptr noundef %38, i32 noundef 0, i64 noundef %39)
  %40 = load ptr, ptr %12, align 8
  %41 = load i64, ptr %7, align 8
  call void @sysbus_mmio_map(ptr noundef %40, i32 noundef 1, i64 noundef %41)
  %42 = load ptr, ptr %11, align 8
  %43 = call ptr @FW_CFG(ptr noundef %42)
  store ptr %43, ptr %13, align 8
  %44 = load ptr, ptr %13, align 8
  %45 = getelementptr inbounds nuw %struct.FWCfgState, ptr %44, i32 0, i32 9
  %46 = load i8, ptr %45, align 4, !range !4, !noundef !5
  %47 = trunc i8 %46 to i1
  br i1 %47, label %48, label %56

48:                                               ; preds = %30
  %49 = load ptr, ptr %10, align 8
  %50 = load ptr, ptr %13, align 8
  %51 = getelementptr inbounds nuw %struct.FWCfgState, ptr %50, i32 0, i32 11
  store ptr %49, ptr %51, align 16
  %52 = load ptr, ptr %13, align 8
  %53 = getelementptr inbounds nuw %struct.FWCfgState, ptr %52, i32 0, i32 10
  store i64 0, ptr %53, align 8
  %54 = load ptr, ptr %12, align 8
  %55 = load i64, ptr %9, align 8
  call void @sysbus_mmio_map(ptr noundef %54, i32 noundef 2, i64 noundef %55)
  br label %56

56:                                               ; preds = %48, %30
  %57 = load ptr, ptr %13, align 8
  call void @llvm.lifetime.end.p0(i64 1, ptr %14) #18
  call void @llvm.lifetime.end.p0(i64 8, ptr %13) #18
  call void @llvm.lifetime.end.p0(i64 8, ptr %12) #18
  call void @llvm.lifetime.end.p0(i64 8, ptr %11) #18
  ret ptr %57
}