; Function Attrs: nounwind sspstrong uwtable
define dso_local ptr @fw_cfg_init_mem_wide(i64 noundef %0, i64 noundef %1, i32 noundef %2, i64 noundef %3, ptr noundef %4) local_unnamed_addr #2 {
  %6 = icmp ne i64 %3, 0
  %7 = icmp ne ptr %4, null
  %8 = and i1 %6, %7
  %9 = tail call ptr @qdev_new(ptr noundef nonnull @.str.13) #18
  tail call void @qdev_prop_set_uint32(ptr noundef %9, ptr noundef nonnull @.str.14, i32 noundef %2) #18
  br i1 %8, label %11, label %10

10:                                               ; preds = %5
  tail call void @qdev_prop_set_bit(ptr noundef %9, ptr noundef nonnull @.str.11, i1 noundef zeroext false) #18
  br label %11

11:                                               ; preds = %10, %5
  %12 = tail call ptr @qdev_get_machine() #18
  %13 = tail call ptr @object_property_add_child(ptr noundef %12, ptr noundef nonnull @.str.12, ptr noundef %9) #18
  %14 = tail call ptr @object_dynamic_cast_assert(ptr noundef %9, ptr noundef nonnull @.str.81, ptr noundef nonnull @.str.82, i32 noundef 20, ptr noundef nonnull @__func__.SYS_BUS_DEVICE) #18
  %15 = tail call zeroext i1 @sysbus_realize_and_unref(ptr noundef %14, ptr noundef nonnull @error_fatal) #18
  tail call void @sysbus_mmio_map(ptr noundef %14, i32 noundef 0, i64 noundef %0) #18
  tail call void @sysbus_mmio_map(ptr noundef %14, i32 noundef 1, i64 noundef %1) #18
  %16 = tail call ptr @object_dynamic_cast_assert(ptr noundef %9, ptr noundef nonnull @.str.12, ptr noundef nonnull @.str.80, i32 noundef 15, ptr noundef nonnull @__func__.FW_CFG) #18
  %17 = getelementptr inbounds nuw i8, ptr %16, i64 884
  %18 = load i8, ptr %17, align 4, !range !4, !noundef !5
  %19 = trunc nuw i8 %18 to i1
  br i1 %19, label %20, label %23

20:                                               ; preds = %11
  %21 = getelementptr inbounds nuw i8, ptr %16, i64 896
  store ptr %4, ptr %21, align 16
  %22 = getelementptr inbounds nuw i8, ptr %16, i64 888
  store i64 0, ptr %22, align 8
  tail call void @sysbus_mmio_map(ptr noundef %14, i32 noundef 2, i64 noundef %3) #18
  br label %23

23:                                               ; preds = %20, %11
  ret ptr %16
}